; Function Attrs: mustprogress uwtable
define internal noundef zeroext i1 @_ZNK4absl13cord_internal12_GLOBAL__N_124EqExtractResultMatcherP2IPNS0_12CordRepBtreeEPNS0_7CordRepEE10gmock_ImplIRKNS5_13ExtractResultEE15MatchAndExplainESB_PN7testing19MatchResultListenerE(ptr nocapture noundef nonnull readonly align 8 dereferenceable(24) %this, ptr nocapture noundef nonnull readonly align 8 dereferenceable(16) %arg, ptr nocapture noundef readonly %result_listener) unnamed_addr #3 align 2 {
entry:
  %0 = load ptr, ptr %arg, align 8
  %tree2 = getelementptr inbounds i8, ptr %this, i64 8
  %1 = load ptr, ptr %tree2, align 8
  %cmp.not = icmp eq ptr %0, %1
  br i1 %cmp.not, label %lor.lhs.false, label %if.then

lor.lhs.false:                                    ; preds = %entry
  %extracted = getelementptr inbounds i8, ptr %arg, i64 8
  %2 = load ptr, ptr %extracted, align 8
  %rep = getelementptr inbounds i8, ptr %this, i64 16
  %3 = load ptr, ptr %rep, align 8
  %cmp3.not = icmp eq ptr %2, %3
  br i1 %cmp3.not, label %return, label %if.then

if.then:                                          ; preds = %lor.lhs.false, %entry
  %stream_.i = getelementptr inbounds i8, ptr %result_listener, i64 8
  %4 = load ptr, ptr %stream_.i, align 8
  %cmp.not.i = icmp eq ptr %4, null
  br i1 %cmp.not.i, label %return, label %_ZN7testing19MatchResultListenerlsIA11_cEERS0_RKT_.exit

_ZN7testing19MatchResultListenerlsIA11_cEERS0_RKT_.exit: ; preds = %if.then
  %call.i = tail call noundef nonnull align 8 dereferenceable(8) ptr @_ZStlsISt11char_traitsIcEERSt13basic_ostreamIcT_ES5_PKc(ptr noundef nonnull align 8 dereferenceable(8) %4, ptr noundef nonnull @.str.341)
  %.pr = load ptr, ptr %stream_.i, align 8
  %cmp.not.i5 = icmp eq ptr %.pr, null
  br i1 %cmp.not.i5, label %return, label %_ZN7testing19MatchResultListenerlsIPKvEERS0_RKT_.exit

_ZN7testing19MatchResultListenerlsIPKvEERS0_RKT_.exit: ; preds = %_ZN7testing19MatchResultListenerlsIA11_cEERS0_RKT_.exit
  %5 = load ptr, ptr %tree2, align 8
  %call.i7 = tail call noundef nonnull align 8 dereferenceable(8) ptr @_ZNSolsEPKv(ptr noundef nonnull align 8 dereferenceable(8) %.pr, ptr noundef %5)
  %.pr40 = load ptr, ptr %stream_.i, align 8
  %cmp.not.i9 = icmp eq ptr %.pr40, null
  br i1 %cmp.not.i9, label %return, label %_ZN7testing19MatchResultListenerlsIA3_cEERS0_RKT_.exit

_ZN7testing19MatchResultListenerlsIA3_cEERS0_RKT_.exit: ; preds = %_ZN7testing19MatchResultListenerlsIPKvEERS0_RKT_.exit
  %call.i11 = tail call noundef nonnull align 8 dereferenceable(8) ptr @_ZStlsISt11char_traitsIcEERSt13basic_ostreamIcT_ES5_PKc(ptr noundef nonnull align 8 dereferenceable(8) %.pr40, ptr noundef nonnull @.str.119)
  %.pr42.pr = load ptr, ptr %stream_.i, align 8
  %cmp.not.i13 = icmp eq ptr %.pr42.pr, null
  br i1 %cmp.not.i13, label %return, label %_ZN7testing19MatchResultListenerlsIPKvEERS0_RKT_.exit16

_ZN7testing19MatchResultListenerlsIPKvEERS0_RKT_.exit16: ; preds = %_ZN7testing19MatchResultListenerlsIA3_cEERS0_RKT_.exit
  %rep8 = getelementptr inbounds i8, ptr %this, i64 16
  %6 = load ptr, ptr %rep8, align 8
  %call.i15 = tail call noundef nonnull align 8 dereferenceable(8) ptr @_ZNSolsEPKv(ptr noundef nonnull align 8 dereferenceable(8) %.pr42.pr, ptr noundef %6)
  %.pr45 = load ptr, ptr %stream_.i, align 8
  %cmp.not.i18 = icmp eq ptr %.pr45, null
  br i1 %cmp.not.i18, label %return, label %_ZN7testing19MatchResultListenerlsIA9_cEERS0_RKT_.exit

_ZN7testing19MatchResultListenerlsIA9_cEERS0_RKT_.exit: ; preds = %_ZN7testing19MatchResultListenerlsIPKvEERS0_RKT_.exit16
  %call.i20 = tail call noundef nonnull align 8 dereferenceable(8) ptr @_ZStlsISt11char_traitsIcEERSt13basic_ostreamIcT_ES5_PKc(ptr noundef nonnull align 8 dereferenceable(8) %.pr45, ptr noundef nonnull @.str.342)
  %.pr47.pr.pr = load ptr, ptr %stream_.i, align 8
  %cmp.not.i22 = icmp eq ptr %.pr47.pr.pr, null
  br i1 %cmp.not.i22, label %return, label %_ZN7testing19MatchResultListenerlsIPN4absl13cord_internal7CordRepEEERS0_RKT_.exit

_ZN7testing19MatchResultListenerlsIPN4absl13cord_internal7CordRepEEERS0_RKT_.exit: ; preds = %_ZN7testing19MatchResultListenerlsIA9_cEERS0_RKT_.exit
  %7 = load ptr, ptr %arg, align 8
  %call.i24 = tail call noundef nonnull align 8 dereferenceable(8) ptr @_ZNSolsEPKv(ptr noundef nonnull align 8 dereferenceable(8) %.pr47.pr.pr, ptr noundef %7)
  %.pr49 = load ptr, ptr %stream_.i, align 8
  %cmp.not.i26 = icmp eq ptr %.pr49, null
  br i1 %cmp.not.i26, label %return, label %_ZN7testing19MatchResultListenerlsIA3_cEERS0_RKT_.exit29

_ZN7testing19MatchResultListenerlsIA3_cEERS0_RKT_.exit29: ; preds = %_ZN7testing19MatchResultListenerlsIPN4absl13cord_internal7CordRepEEERS0_RKT_.exit
  %call.i28 = tail call noundef nonnull align 8 dereferenceable(8) ptr @_ZStlsISt11char_traitsIcEERSt13basic_ostreamIcT_ES5_PKc(ptr noundef nonnull align 8 dereferenceable(8) %.pr49, ptr noundef nonnull @.str.119)
  %.pr51.pr.pr = load ptr, ptr %stream_.i, align 8
  %cmp.not.i31 = icmp eq ptr %.pr51.pr.pr, null
  br i1 %cmp.not.i31, label %return, label %_ZN7testing19MatchResultListenerlsIPN4absl13cord_internal7CordRepEEERS0_RKT_.exit34

_ZN7testing19MatchResultListenerlsIPN4absl13cord_internal7CordRepEEERS0_RKT_.exit34: ; preds = %_ZN7testing19MatchResultListenerlsIA3_cEERS0_RKT_.exit29
  %extracted14 = getelementptr inbounds i8, ptr %arg, i64 8
  %8 = load ptr, ptr %extracted14, align 8
  %call.i33 = tail call noundef nonnull align 8 dereferenceable(8) ptr @_ZNSolsEPKv(ptr noundef nonnull align 8 dereferenceable(8) %.pr51.pr.pr, ptr noundef %8)
  %.pr54 = load ptr, ptr %stream_.i, align 8
  %cmp.not.i36 = icmp eq ptr %.pr54, null
  br i1 %cmp.not.i36, label %return, label %if.then.i37

if.then.i37:                                      ; preds = %_ZN7testing19MatchResultListenerlsIPN4absl13cord_internal7CordRepEEERS0_RKT_.exit34
  %call.i38 = tail call noundef nonnull align 8 dereferenceable(8) ptr @_ZStlsISt11char_traitsIcEERSt13basic_ostreamIcT_ES5_PKc(ptr noundef nonnull align 8 dereferenceable(8) %.pr54, ptr noundef nonnull @.str.343)
  br label %return

return:                                           ; preds = %_ZN7testing19MatchResultListenerlsIPKvEERS0_RKT_.exit, %_ZN7testing19MatchResultListenerlsIA3_cEERS0_RKT_.exit, %if.then, %_ZN7testing19MatchResultListenerlsIA11_cEERS0_RKT_.exit, %_ZN7testing19MatchResultListenerlsIA9_cEERS0_RKT_.exit, %_ZN7testing19MatchResultListenerlsIPKvEERS0_RKT_.exit16, %_ZN7testing19MatchResultListenerlsIPN4absl13cord_internal7CordRepEEERS0_RKT_.exit, %_ZN7testing19MatchResultListenerlsIA3_cEERS0_RKT_.exit29, %if.then.i37, %_ZN7testing19MatchResultListenerlsIPN4absl13cord_internal7CordRepEEERS0_RKT_.exit34, %lor.lhs.false
  %retval.0 = phi i1 [ true, %lor.lhs.false ], [ false, %_ZN7testing19MatchResultListenerlsIPN4absl13cord_internal7CordRepEEERS0_RKT_.exit34 ], [ false, %if.then.i37 ], [ false, %_ZN7testing19MatchResultListenerlsIA3_cEERS0_RKT_.exit29 ], [ false, %_ZN7testing19MatchResultListenerlsIPN4absl13cord_internal7CordRepEEERS0_RKT_.exit ], [ false, %_ZN7testing19MatchResultListenerlsIPKvEERS0_RKT_.exit16 ], [ false, %_ZN7testing19MatchResultListenerlsIA9_cEERS0_RKT_.exit ], [ false, %_ZN7testing19MatchResultListenerlsIA11_cEERS0_RKT_.exit ], [ false, %if.then ], [ false, %_ZN7testing19MatchResultListenerlsIA3_cEERS0_RKT_.exit ], [ false, %_ZN7testing19MatchResultListenerlsIPKvEERS0_RKT_.exit ]
  ret i1 %retval.0
}